target datalayout = "e-m:e-p270:32:32-p271:32:32-p272:64:64-i64:64-i128:128-f80:128-n8:16:32:64-S128"
target triple = "x86_64-pc-linux-gnu"

%struct.wsfield = type { ptr, ptr }
%struct.Curl_easy = type { i32, i64, i64, ptr, %struct.Curl_llist_node, %struct.Curl_llist_node, i32, i32, %struct.Curl_message, %struct.easy_pollset, %struct.Names, ptr, ptr, ptr, ptr, %struct.SingleRequest, %struct.UserDefined, ptr, ptr, ptr, %struct.Progress, %struct.UrlState, ptr, %struct.PureInfo, %struct.curl_tlssessioninfo }
%struct.Curl_llist_node = type { ptr, ptr, ptr, ptr }
%struct.Curl_message = type { %struct.Curl_llist_node, %struct.CURLMsg }
%struct.CURLMsg = type { i32, ptr, %union.anon }
%union.anon = type { ptr }
%struct.easy_pollset = type { [5 x i32], i32, [5 x i8] }
%struct.Names = type { ptr, i32 }
%struct.SingleRequest = type <{ i64, i64, i64, i64, %struct.curltime, i32, i32, i32, i32, i64, i32, i32, i8, i8, [2 x i8], i32, ptr, ptr, %struct.bufq, i64, i64, ptr, ptr, %union.anon.0, ptr, i8, i32, [3 x i8] }>
%struct.curltime = type { i64, i32 }
%struct.bufq = type { ptr, ptr, ptr, ptr, i64, i64, i64, i32 }
%union.anon.0 = type { ptr }
%struct.UserDefined = type <{ ptr, ptr, ptr, ptr, ptr, ptr, i64, i64, i64, ptr, ptr, i64, ptr, ptr, ptr, ptr, ptr, ptr, ptr, ptr, ptr, ptr, ptr, ptr, ptr, ptr, ptr, ptr, ptr, ptr, ptr, ptr, ptr, ptr, ptr, i64, i64, i64, i64, i64, i64, i64, i64, i64, ptr, ptr, %struct.curl_mimepart, ptr, ptr, ptr, i64, %struct.ssl_config_data, %struct.ssl_config_data, ptr, i16, i8, i8, %struct.ssl_general_config, i32, i32, i32, [4 x i8], ptr, ptr, i64, i32, i8, i8, i8, i8, ptr, ptr, ptr, i32, [4 x i8], [74 x ptr], [8 x ptr], i32, i32, i32, [4 x i8], ptr, i32, [4 x i8], ptr, ptr, ptr, ptr, ptr, i32, i32, i32, i32, i32, i32, i32, i32, i64, ptr, ptr, i64, ptr, i64, ptr, ptr, ptr, ptr, i32, i16, i16, i16, i8, i8, i8, i8, i8, i8, i8, i8, i64, [6 x i8] }>
%struct.curl_mimepart = type { ptr, ptr, i32, i32, ptr, ptr, ptr, ptr, ptr, ptr, ptr, ptr, ptr, ptr, ptr, i64, %struct.mime_state, ptr, %struct.mime_encoder_state, i64 }
%struct.mime_state = type { i32, ptr, i64 }
%struct.mime_encoder_state = type { i64, i64, i64, [256 x i8] }
%struct.ssl_config_data = type { %struct.ssl_primary_config, i64, ptr, ptr, ptr, ptr, ptr, ptr, ptr, i16 }
%struct.ssl_primary_config = type { ptr, ptr, ptr, ptr, ptr, ptr, ptr, ptr, ptr, ptr, ptr, ptr, ptr, ptr, i8, i32, i8, i8 }
%struct.ssl_general_config = type { i32 }
%struct.Progress = type { i64, %struct.pgrs_dir, %struct.pgrs_dir, i64, i64, i32, i32, i64, i64, i64, i64, i64, i64, i64, i64, i64, %struct.curltime, %struct.curltime, %struct.curltime, %struct.curltime, %struct.curltime, [6 x i64], [6 x %struct.curltime], i32, i8 }
%struct.pgrs_dir = type { i64, i64, i64, %struct.pgrs_measure }
%struct.pgrs_measure = type { %struct.curltime, i64 }
%struct.UrlState = type { %struct.curltime, i64, i64, %struct.dynbuf, ptr, i64, ptr, i32, i32, i32, ptr, i32, i64, i32, ptr, %struct.digestdata, %struct.digestdata, %struct.auth, %struct.auth, %struct.Curl_async, ptr, i8, %struct.curltime, %struct.Curl_tree, %struct.Curl_llist, [15 x %struct.time_node], ptr, ptr, i64, i64, i64, i64, [32 x i8], i64, ptr, ptr, ptr, %struct.urlpieces, ptr, ptr, ptr, ptr, ptr, i64, %struct.dynbuf, %struct.Curl_llist, [2 x %struct.curl_header], ptr, i32, ptr, ptr, %struct.store_netrc, %struct.dynamically_allocated_data, i8, i8, i8, i8, i32 }
%struct.digestdata = type { ptr, ptr, ptr, ptr, ptr, ptr, i32, i8, i8 }
%struct.auth = type { i64, i64, i64, i8 }
%struct.Curl_async = type { ptr, ptr, ptr, ptr, i32, i32, i8 }
%struct.Curl_tree = type { ptr, ptr, ptr, ptr, %struct.curltime, ptr }
%struct.time_node = type { %struct.Curl_llist_node, %struct.curltime, i32 }
%struct.urlpieces = type { ptr, ptr, ptr, ptr, ptr, ptr, ptr, ptr }
%struct.dynbuf = type { ptr, i64, i64, i64 }
%struct.Curl_llist = type { ptr, ptr, ptr, i64 }
%struct.curl_header = type { ptr, ptr, i64, i64, i32, ptr }
%struct.store_netrc = type { %struct.dynbuf, ptr, i8 }
%struct.dynamically_allocated_data = type { ptr, ptr, ptr, ptr, ptr, ptr, ptr, ptr, ptr, ptr, ptr, ptr, ptr, ptr }
%struct.PureInfo = type { i32, i32, i32, i64, i64, i64, i64, i64, i64, i64, ptr, ptr, i64, i32, %struct.ip_quadruple, i32, ptr, i32, %struct.curl_certinfo, i32, i8 }
%struct.ip_quadruple = type { [46 x i8], [46 x i8], i32, i32 }
%struct.curl_certinfo = type { i32, ptr }
%struct.curl_tlssessioninfo = type { i32, ptr }

@__const.Curl_ws_request.heads = private unnamed_addr constant [4 x %struct.wsfield] [%struct.wsfield { ptr @.str, ptr @.str.1 }, %struct.wsfield { ptr @.str.2, ptr @.str.3 }, %struct.wsfield { ptr @.str.4, ptr @.str.5 }, %struct.wsfield { ptr @.str.6, ptr null }], align 16
@Curl_cfree = external global ptr, align 8
@.str.7 = private unnamed_addr constant [8 x i8] c"%s %s\0D\0A\00", align 1

; Function Attrs: nounwind uwtable
define hidden i32 @Curl_ws_request(ptr noundef %0, ptr noundef %1) #0 {
  %3 = alloca i32, align 4
  %4 = alloca ptr, align 8
  %5 = alloca ptr, align 8
  %6 = alloca i32, align 4
  %7 = alloca i32, align 4
  %8 = alloca [16 x i8], align 16
  %9 = alloca ptr, align 8
  %10 = alloca i64, align 8
  %11 = alloca [40 x i8], align 16
  %12 = alloca ptr, align 8
  %13 = alloca [4 x %struct.wsfield], align 16
  %14 = alloca i32, align 4
  store ptr %0, ptr %4, align 8, !tbaa !3
  store ptr %1, ptr %5, align 8, !tbaa !8
  call void @llvm.lifetime.start.p0(i64 4, ptr %6) #6
  call void @llvm.lifetime.start.p0(i64 4, ptr %7) #6
  store i32 0, ptr %7, align 4, !tbaa !10
  call void @llvm.lifetime.start.p0(i64 16, ptr %8) #6
  call void @llvm.lifetime.start.p0(i64 8, ptr %9) #6
  call void @llvm.lifetime.start.p0(i64 8, ptr %10) #6
  call void @llvm.lifetime.start.p0(i64 40, ptr %11) #6
  call void @llvm.lifetime.start.p0(i64 8, ptr %12) #6
  %15 = load ptr, ptr %4, align 8, !tbaa !3
  %16 = getelementptr inbounds nuw %struct.Curl_easy, ptr %15, i32 0, i32 15
  store ptr %16, ptr %12, align 8, !tbaa !12
  call void @llvm.lifetime.start.p0(i64 64, ptr %13) #6
  call void @llvm.memcpy.p0.p0.i64(ptr align 16 %13, ptr align 16 @__const.Curl_ws_request.heads, i64 64, i1 false)
  %17 = getelementptr inbounds [40 x i8], ptr %11, i64 0, i64 0
  %18 = getelementptr inbounds [4 x %struct.wsfield], ptr %13, i64 0, i64 3
  %19 = getelementptr inbounds nuw %struct.wsfield, ptr %18, i32 0, i32 1
  store ptr %17, ptr %19, align 8, !tbaa !14
  %20 = load ptr, ptr %4, align 8, !tbaa !3
  %21 = getelementptr inbounds [16 x i8], ptr %8, i64 0, i64 0
  %22 = call i32 @Curl_rand_bytes(ptr noundef %20, ptr noundef %21, i64 noundef 16)
  store i32 %22, ptr %7, align 4, !tbaa !10
  %23 = load i32, ptr %7, align 4, !tbaa !10
  %24 = icmp ne i32 %23, 0
  br i1 %24, label %25, label %27

25:                                               ; preds = %2
  %26 = load i32, ptr %7, align 4, !tbaa !10
  store i32 %26, ptr %3, align 4
  store i32 1, ptr %14, align 4
  br label %88

27:                                               ; preds = %2
  %28 = getelementptr inbounds [16 x i8], ptr %8, i64 0, i64 0
  %29 = call i32 @Curl_base64_encode(ptr noundef %28, i64 noundef 16, ptr noundef %9, ptr noundef %10)
  store i32 %29, ptr %7, align 4, !tbaa !10
  %30 = load i32, ptr %7, align 4, !tbaa !10
  %31 = icmp ne i32 %30, 0
  br i1 %31, label %32, label %34

32:                                               ; preds = %27
  %33 = load i32, ptr %7, align 4, !tbaa !10
  store i32 %33, ptr %3, align 4
  store i32 1, ptr %14, align 4
  br label %88

34:                                               ; preds = %27
  br label %35

35:                                               ; preds = %34
  br label %36

36:                                               ; preds = %35
  br label %37

37:                                               ; preds = %36
  %38 = load i64, ptr %10, align 8, !tbaa !17
  %39 = icmp uge i64 %38, 40
  br i1 %39, label %40, label %43

40:                                               ; preds = %37
  %41 = load ptr, ptr @Curl_cfree, align 8, !tbaa !19
  %42 = load ptr, ptr %9, align 8, !tbaa !20
  call void %41(ptr noundef %42)
  store i32 2, ptr %3, align 4
  store i32 1, ptr %14, align 4
  br label %88

43:                                               ; preds = %37
  %44 = getelementptr inbounds [40 x i8], ptr %11, i64 0, i64 0
  %45 = load ptr, ptr %9, align 8, !tbaa !20
  %46 = call ptr @strcpy(ptr noundef %44, ptr noundef %45) #6
  %47 = load ptr, ptr @Curl_cfree, align 8, !tbaa !19
  %48 = load ptr, ptr %9, align 8, !tbaa !20
  call void %47(ptr noundef %48)
  store i32 0, ptr %6, align 4, !tbaa !10
  br label %49

49:                                               ; preds = %81, %43
  %50 = load i32, ptr %7, align 4, !tbaa !10
  %51 = icmp ne i32 %50, 0
  br i1 %51, label %56, label %52

52:                                               ; preds = %49
  %53 = load i32, ptr %6, align 4, !tbaa !10
  %54 = zext i32 %53 to i64
  %55 = icmp ult i64 %54, 4
  br label %56

56:                                               ; preds = %52, %49
  %57 = phi i1 [ false, %49 ], [ %55, %52 ]
  br i1 %57, label %58, label %84

58:                                               ; preds = %56
  %59 = load ptr, ptr %4, align 8, !tbaa !3
  %60 = load i32, ptr %6, align 4, !tbaa !10
  %61 = zext i32 %60 to i64
  %62 = getelementptr inbounds nuw [4 x %struct.wsfield], ptr %13, i64 0, i64 %61
  %63 = getelementptr inbounds nuw %struct.wsfield, ptr %62, i32 0, i32 0
  %64 = load ptr, ptr %63, align 16, !tbaa !21
  %65 = call ptr @Curl_checkheaders(ptr noundef %59, ptr noundef %64, i64 noundef 7)
  %66 = icmp ne ptr %65, null
  br i1 %66, label %80, label %67

67:                                               ; preds = %58
  %68 = load ptr, ptr %5, align 8, !tbaa !8
  %69 = load i32, ptr %6, align 4, !tbaa !10
  %70 = zext i32 %69 to i64
  %71 = getelementptr inbounds nuw [4 x %struct.wsfield], ptr %13, i64 0, i64 %70
  %72 = getelementptr inbounds nuw %struct.wsfield, ptr %71, i32 0, i32 0
  %73 = load ptr, ptr %72, align 16, !tbaa !21
  %74 = load i32, ptr %6, align 4, !tbaa !10
  %75 = zext i32 %74 to i64
  %76 = getelementptr inbounds nuw [4 x %struct.wsfield], ptr %13, i64 0, i64 %75
  %77 = getelementptr inbounds nuw %struct.wsfield, ptr %76, i32 0, i32 1
  %78 = load ptr, ptr %77, align 8, !tbaa !14
  %79 = call i32 (ptr, ptr, ...) @Curl_dyn_addf(ptr noundef %68, ptr noundef @.str.7, ptr noundef %73, ptr noundef %78)
  store i32 %79, ptr %7, align 4, !tbaa !10
  br label %80

80:                                               ; preds = %67, %58
  br label %81

81:                                               ; preds = %80
  %82 = load i32, ptr %6, align 4, !tbaa !10
  %83 = add i32 %82, 1
  store i32 %83, ptr %6, align 4, !tbaa !10
  br label %49, !llvm.loop !22

84:                                               ; preds = %56
  %85 = load ptr, ptr %12, align 8, !tbaa !12
  %86 = getelementptr inbounds nuw %struct.SingleRequest, ptr %85, i32 0, i32 15
  store i32 1, ptr %86, align 4, !tbaa !24
  %87 = load i32, ptr %7, align 4, !tbaa !10
  store i32 %87, ptr %3, align 4
  store i32 1, ptr %14, align 4
  br label %88

88:                                               ; preds = %84, %40, %32, %25
  call void @llvm.lifetime.end.p0(i64 64, ptr %13) #6
  call void @llvm.lifetime.end.p0(i64 8, ptr %12) #6
  call void @llvm.lifetime.end.p0(i64 40, ptr %11) #6
  call void @llvm.lifetime.end.p0(i64 8, ptr %10) #6
  call void @llvm.lifetime.end.p0(i64 8, ptr %9) #6
  call void @llvm.lifetime.end.p0(i64 16, ptr %8) #6
  call void @llvm.lifetime.end.p0(i64 4, ptr %7) #6
  call void @llvm.lifetime.end.p0(i64 4, ptr %6) #6
  %89 = load i32, ptr %3, align 4
  ret i32 %89
}