; Function Attrs: nounwind uwtable
define hidden i32 @Curl_ws_request(ptr noundef %0, ptr noundef %1) local_unnamed_addr #0 {
  %3 = alloca [16 x i8], align 16
  %4 = alloca ptr, align 8
  %5 = alloca i64, align 8
  %6 = alloca [40 x i8], align 16
  %7 = alloca [4 x %struct.wsfield], align 16
  call void @llvm.lifetime.start.p0(i64 16, ptr nonnull %3) #7
  call void @llvm.lifetime.start.p0(i64 8, ptr nonnull %4) #7
  call void @llvm.lifetime.start.p0(i64 8, ptr nonnull %5) #7
  call void @llvm.lifetime.start.p0(i64 40, ptr nonnull %6) #7
  call void @llvm.lifetime.start.p0(i64 64, ptr nonnull %7) #7
  call void @llvm.memcpy.p0.p0.i64(ptr noundef nonnull align 16 dereferenceable(64) %7, ptr noundef nonnull align 16 dereferenceable(64) @__const.Curl_ws_request.heads, i64 64, i1 false)
  %8 = getelementptr inbounds nuw i8, ptr %7, i64 56
  store ptr %6, ptr %8, align 8, !tbaa !3
  %9 = call i32 @Curl_rand_bytes(ptr noundef %0, ptr noundef nonnull %3, i64 noundef 16) #7
  %.not = icmp eq i32 %9, 0
  br i1 %.not, label %10, label %35

10:                                               ; preds = %2
  %11 = call i32 @Curl_base64_encode(ptr noundef nonnull %3, i64 noundef 16, ptr noundef nonnull %4, ptr noundef nonnull %5) #7
  %.not21 = icmp eq i32 %11, 0
  br i1 %.not21, label %12, label %35

12:                                               ; preds = %10
  %13 = load i64, ptr %5, align 8, !tbaa !9
  %14 = icmp ugt i64 %13, 39
  br i1 %14, label %15, label %18

15:                                               ; preds = %12
  %16 = load ptr, ptr @Curl_cfree, align 8, !tbaa !11
  %17 = load ptr, ptr %4, align 8, !tbaa !12
  call void %16(ptr noundef %17) #7
  br label %35

18:                                               ; preds = %12
  %19 = load ptr, ptr %4, align 8, !tbaa !12
  %20 = call ptr @strcpy(ptr noundef nonnull dereferenceable(1) %6, ptr noundef nonnull dereferenceable(1) %19) #7
  %21 = load ptr, ptr @Curl_cfree, align 8, !tbaa !11
  call void %21(ptr noundef nonnull %19) #7
  br label %22

22:                                               ; preds = %18, %30
  %indvars.iv = phi i64 [ 0, %18 ], [ %indvars.iv.next, %30 ]
  %23 = getelementptr inbounds nuw [4 x %struct.wsfield], ptr %7, i64 0, i64 %indvars.iv
  %24 = load ptr, ptr %23, align 16, !tbaa !13
  %25 = call ptr @Curl_checkheaders(ptr noundef %0, ptr noundef %24, i64 noundef 7) #7
  %.not23 = icmp eq ptr %25, null
  br i1 %.not23, label %26, label %30

26:                                               ; preds = %22
  %27 = getelementptr inbounds nuw i8, ptr %23, i64 8
  %28 = load ptr, ptr %27, align 8, !tbaa !3
  %29 = call i32 (ptr, ptr, ...) @Curl_dyn_addf(ptr noundef %1, ptr noundef nonnull @.str.7, ptr noundef %24, ptr noundef %28) #7
  br label %30

30:                                               ; preds = %22, %26
  %.1 = phi i32 [ 0, %22 ], [ %29, %26 ]
  %indvars.iv.next = add nuw nsw i64 %indvars.iv, 1
  %.not22 = icmp eq i32 %.1, 0
  %31 = icmp samesign ult i64 %indvars.iv, 3
  %32 = select i1 %.not22, i1 %31, i1 false
  br i1 %32, label %22, label %33, !llvm.loop !14

33:                                               ; preds = %30
  %34 = getelementptr inbounds nuw i8, ptr %0, i64 324
  store i32 1, ptr %34, align 4, !tbaa !16
  br label %35

35:                                               ; preds = %10, %2, %33, %15
  %.0 = phi i32 [ 2, %15 ], [ %.1, %33 ], [ %9, %2 ], [ %11, %10 ]
  call void @llvm.lifetime.end.p0(i64 64, ptr nonnull %7) #7
  call void @llvm.lifetime.end.p0(i64 40, ptr nonnull %6) #7
  call void @llvm.lifetime.end.p0(i64 8, ptr nonnull %5) #7
  call void @llvm.lifetime.end.p0(i64 8, ptr nonnull %4) #7
  call void @llvm.lifetime.end.p0(i64 16, ptr nonnull %3) #7
  ret i32 %.0
}